target datalayout = "e-m:e-p270:32:32-p271:32:32-p272:64:64-i64:64-i128:128-f80:128-n8:16:32:64-S128"
target triple = "x86_64-pc-linux-gnu"

%struct._et_dissector_info = type { ptr }
%struct._address = type { i32, i32, ptr, ptr }
%struct._conversation_hash_t = type { ptr, ptr, ptr, i32 }
%struct.jxta_tap_header = type { %struct._address, %struct._address, i32 }

@jxta_endpoint_dissector_info = internal global %struct._et_dissector_info { ptr @jxta_endpoint_get_filter_type }, align 8

; Function Attrs: null_pointer_is_valid sspstrong uwtable
define internal i32 @jxta_endpoint_packet(ptr noundef %0, ptr noundef %1, ptr noundef %2, ptr noundef %3, i32 noundef %4) #0 {
  %6 = alloca ptr, align 8
  %7 = alloca ptr, align 8
  %8 = alloca ptr, align 8
  %9 = alloca ptr, align 8
  %10 = alloca i32, align 4
  %11 = alloca ptr, align 8
  %12 = alloca ptr, align 8
  store ptr %0, ptr %6, align 8
  store ptr %1, ptr %7, align 8
  store ptr %2, ptr %8, align 8
  store ptr %3, ptr %9, align 8
  store i32 %4, ptr %10, align 4
  call void @llvm.lifetime.start.p0(i64 8, ptr %11) #14
  %13 = load ptr, ptr %6, align 8
  store ptr %13, ptr %11, align 8
  %14 = load i32, ptr %10, align 4
  %15 = load ptr, ptr %11, align 8
  %16 = getelementptr inbounds nuw %struct._conversation_hash_t, ptr %15, i32 0, i32 3
  store i32 %14, ptr %16, align 8
  call void @llvm.lifetime.start.p0(i64 8, ptr %12) #14
  %17 = load ptr, ptr %9, align 8
  store ptr %17, ptr %12, align 8
  %18 = load ptr, ptr %11, align 8
  %19 = load ptr, ptr %12, align 8
  %20 = getelementptr inbounds nuw %struct.jxta_tap_header, ptr %19, i32 0, i32 0
  %21 = load ptr, ptr %12, align 8
  %22 = getelementptr inbounds nuw %struct.jxta_tap_header, ptr %21, i32 0, i32 2
  %23 = load i32, ptr %22, align 8
  call void @add_endpoint_table_data(ptr noundef %18, ptr noundef %20, i32 noundef 0, i1 noundef zeroext true, i32 noundef 1, i32 noundef %23, ptr noundef @jxta_endpoint_dissector_info, i32 noundef 0)
  %24 = load ptr, ptr %11, align 8
  %25 = load ptr, ptr %12, align 8
  %26 = getelementptr inbounds nuw %struct.jxta_tap_header, ptr %25, i32 0, i32 1
  %27 = load ptr, ptr %12, align 8
  %28 = getelementptr inbounds nuw %struct.jxta_tap_header, ptr %27, i32 0, i32 2
  %29 = load i32, ptr %28, align 8
  call void @add_endpoint_table_data(ptr noundef %24, ptr noundef %26, i32 noundef 0, i1 noundef zeroext false, i32 noundef 1, i32 noundef %29, ptr noundef @jxta_endpoint_dissector_info, i32 noundef 0)
  call void @llvm.lifetime.end.p0(i64 8, ptr %12) #14
  call void @llvm.lifetime.end.p0(i64 8, ptr %11) #14
  ret i32 1
}