; Function Attrs: null_pointer_is_valid sspstrong uwtable
define internal noundef i32 @jxta_endpoint_packet(ptr noundef initializes((24, 28)) %0, ptr readnone captures(none) %1, ptr readnone captures(none) %2, ptr noundef %3, i32 noundef %4) #0 {
  %6 = getelementptr inbounds nuw i8, ptr %0, i64 24
  store i32 %4, ptr %6, align 8
  %7 = getelementptr inbounds nuw i8, ptr %3, i64 48
  %8 = load i32, ptr %7, align 8
  tail call void @add_endpoint_table_data(ptr noundef %0, ptr noundef %3, i32 noundef 0, i1 noundef zeroext true, i32 noundef 1, i32 noundef %8, ptr noundef nonnull @jxta_endpoint_dissector_info, i32 noundef 0)
  %9 = getelementptr inbounds nuw i8, ptr %3, i64 24
  %10 = load i32, ptr %7, align 8
  tail call void @add_endpoint_table_data(ptr noundef %0, ptr noundef nonnull %9, i32 noundef 0, i1 noundef zeroext false, i32 noundef 1, i32 noundef %10, ptr noundef nonnull @jxta_endpoint_dissector_info, i32 noundef 0)
  ret i32 1
}